target datalayout = "e-m:e-p270:32:32-p271:32:32-p272:64:64-i64:64-i128:128-f80:128-n8:16:32:64-S128"
target triple = "x86_64-pc-linux-gnu"

%struct.filter_info_t = type { i32, i32, [20 x i32], i64 }

; Function Attrs: nounwind uwtable
define internal i32 @verify_filters(i64 noundef %0, i64 noundef %1, i32 noundef %2, ptr noundef %3) #0 {
  %5 = alloca i32, align 4
  %6 = alloca i64, align 8
  %7 = alloca i64, align 8
  %8 = alloca i32, align 4
  %9 = alloca ptr, align 8
  %10 = alloca i32, align 4
  %11 = alloca i32, align 4
  %12 = alloca i32, align 4
  %13 = alloca [20 x i32], align 16
  %14 = alloca i64, align 8
  %15 = alloca [256 x i8], align 16
  %16 = alloca i64, align 8
  %17 = alloca i32, align 4
  %18 = alloca i32, align 4
  %19 = alloca i32, align 4
  store i64 %0, ptr %6, align 8, !tbaa !10
  store i64 %1, ptr %7, align 8, !tbaa !10
  store i32 %2, ptr %8, align 4, !tbaa !12
  store ptr %3, ptr %9, align 8, !tbaa !9
  call void @llvm.lifetime.start.p0(i64 4, ptr %10) #5
  call void @llvm.lifetime.start.p0(i64 4, ptr %11) #5
  call void @llvm.lifetime.start.p0(i64 4, ptr %12) #5
  call void @llvm.lifetime.start.p0(i64 80, ptr %13) #5
  call void @llvm.lifetime.start.p0(i64 8, ptr %14) #5
  call void @llvm.lifetime.start.p0(i64 256, ptr %15) #5
  call void @llvm.lifetime.start.p0(i64 8, ptr %16) #5
  call void @llvm.lifetime.start.p0(i64 4, ptr %17) #5
  call void @llvm.lifetime.start.p0(i64 4, ptr %18) #5
  %20 = load i64, ptr %6, align 8, !tbaa !10
  %21 = call i32 @H5Pget_nfilters(i64 noundef %20)
  store i32 %21, ptr %10, align 4, !tbaa !12
  %22 = icmp slt i32 %21, 0
  br i1 %22, label %23, label %24

23:                                               ; preds = %4
  store i32 -1, ptr %5, align 4
  store i32 1, ptr %19, align 4
  br label %232

24:                                               ; preds = %4
  %25 = load i32, ptr %10, align 4, !tbaa !12
  %26 = icmp ne i32 %25, 0
  br i1 %26, label %37, label %27

27:                                               ; preds = %24
  %28 = load i32, ptr %8, align 4, !tbaa !12
  %29 = icmp eq i32 %28, 1
  br i1 %29, label %30, label %37

30:                                               ; preds = %27
  %31 = load ptr, ptr %9, align 8, !tbaa !9
  %32 = getelementptr inbounds %struct.filter_info_t, ptr %31, i64 0
  %33 = getelementptr inbounds nuw %struct.filter_info_t, ptr %32, i32 0, i32 0
  %34 = load i32, ptr %33, align 8, !tbaa !54
  %35 = icmp eq i32 %34, 0
  br i1 %35, label %36, label %37

36:                                               ; preds = %30
  store i32 1, ptr %5, align 4
  store i32 1, ptr %19, align 4
  br label %232

37:                                               ; preds = %30, %27, %24
  %38 = load i32, ptr %10, align 4, !tbaa !12
  %39 = load i32, ptr %8, align 4, !tbaa !12
  %40 = icmp ne i32 %38, %39
  br i1 %40, label %41, label %42

41:                                               ; preds = %37
  store i32 0, ptr %5, align 4
  store i32 1, ptr %19, align 4
  br label %232

42:                                               ; preds = %37
  store i32 0, ptr %17, align 4, !tbaa !12
  br label %43

43:                                               ; preds = %228, %42
  %44 = load i32, ptr %17, align 4, !tbaa !12
  %45 = load i32, ptr %10, align 4, !tbaa !12
  %46 = icmp slt i32 %44, %45
  br i1 %46, label %47, label %231

47:                                               ; preds = %43
  store i64 20, ptr %14, align 8, !tbaa !10
  %48 = load i64, ptr %6, align 8, !tbaa !10
  %49 = load i32, ptr %17, align 4, !tbaa !12
  %50 = getelementptr inbounds [20 x i32], ptr %13, i64 0, i64 0
  %51 = getelementptr inbounds [256 x i8], ptr %15, i64 0, i64 0
  %52 = call i32 @H5Pget_filter2(i64 noundef %48, i32 noundef %49, ptr noundef %11, ptr noundef %14, ptr noundef %50, i64 noundef 256, ptr noundef %51, ptr noundef null)
  store i32 %52, ptr %12, align 4, !tbaa !12
  %53 = load i32, ptr %12, align 4, !tbaa !12
  %54 = icmp slt i32 %53, 0
  br i1 %54, label %55, label %56

55:                                               ; preds = %47
  store i32 -1, ptr %5, align 4
  store i32 1, ptr %19, align 4
  br label %232

56:                                               ; preds = %47
  %57 = load i32, ptr %12, align 4, !tbaa !12
  %58 = load ptr, ptr %9, align 8, !tbaa !9
  %59 = load i32, ptr %17, align 4, !tbaa !12
  %60 = sext i32 %59 to i64
  %61 = getelementptr inbounds %struct.filter_info_t, ptr %58, i64 %60
  %62 = getelementptr inbounds nuw %struct.filter_info_t, ptr %61, i32 0, i32 0
  %63 = load i32, ptr %62, align 8, !tbaa !54
  %64 = icmp ne i32 %57, %63
  br i1 %64, label %65, label %66

65:                                               ; preds = %56
  store i32 0, ptr %5, align 4
  store i32 1, ptr %19, align 4
  br label %232

66:                                               ; preds = %56
  %67 = load i32, ptr %12, align 4, !tbaa !12
  switch i32 %67, label %190 [
    i32 0, label %227
    i32 2, label %68
    i32 4, label %93
    i32 5, label %118
    i32 6, label %128
    i32 3, label %153
    i32 1, label %153
  ]

68:                                               ; preds = %66
  %69 = load i64, ptr %14, align 8, !tbaa !10
  %70 = icmp ne i64 %69, 1
  br i1 %70, label %71, label %80

71:                                               ; preds = %68
  %72 = load ptr, ptr %9, align 8, !tbaa !9
  %73 = load i32, ptr %17, align 4, !tbaa !12
  %74 = sext i32 %73 to i64
  %75 = getelementptr inbounds %struct.filter_info_t, ptr %72, i64 %74
  %76 = getelementptr inbounds nuw %struct.filter_info_t, ptr %75, i32 0, i32 3
  %77 = load i64, ptr %76, align 8, !tbaa !56
  %78 = icmp ne i64 %77, 0
  br i1 %78, label %79, label %80

79:                                               ; preds = %71
  store i32 0, ptr %5, align 4
  store i32 1, ptr %19, align 4
  br label %232

80:                                               ; preds = %71, %68
  %81 = load i64, ptr %7, align 8, !tbaa !10
  %82 = call i64 @H5Tget_size(i64 noundef %81)
  store i64 %82, ptr %16, align 8, !tbaa !10
  %83 = icmp ule i64 %82, 0
  br i1 %83, label %84, label %85

84:                                               ; preds = %80
  store i32 -1, ptr %5, align 4
  store i32 1, ptr %19, align 4
  br label %232

85:                                               ; preds = %80
  %86 = load i64, ptr %16, align 8, !tbaa !10
  %87 = getelementptr inbounds [20 x i32], ptr %13, i64 0, i64 0
  %88 = load i32, ptr %87, align 16, !tbaa !12
  %89 = zext i32 %88 to i64
  %90 = icmp ne i64 %86, %89
  br i1 %90, label %91, label %92

91:                                               ; preds = %85
  store i32 0, ptr %5, align 4
  store i32 1, ptr %19, align 4
  br label %232

92:                                               ; preds = %85
  br label %227

93:                                               ; preds = %66
  %94 = load i64, ptr %14, align 8, !tbaa !10
  %95 = icmp ne i64 %94, 4
  br i1 %95, label %96, label %105

96:                                               ; preds = %93
  %97 = load ptr, ptr %9, align 8, !tbaa !9
  %98 = load i32, ptr %17, align 4, !tbaa !12
  %99 = sext i32 %98 to i64
  %100 = getelementptr inbounds %struct.filter_info_t, ptr %97, i64 %99
  %101 = getelementptr inbounds nuw %struct.filter_info_t, ptr %100, i32 0, i32 3
  %102 = load i64, ptr %101, align 8, !tbaa !56
  %103 = icmp ne i64 %102, 2
  br i1 %103, label %104, label %105

104:                                              ; preds = %96
  store i32 0, ptr %5, align 4
  store i32 1, ptr %19, align 4
  br label %232

105:                                              ; preds = %96, %93
  %106 = getelementptr inbounds [20 x i32], ptr %13, i64 0, i64 1
  %107 = load i32, ptr %106, align 4, !tbaa !12
  %108 = load ptr, ptr %9, align 8, !tbaa !9
  %109 = load i32, ptr %17, align 4, !tbaa !12
  %110 = sext i32 %109 to i64
  %111 = getelementptr inbounds %struct.filter_info_t, ptr %108, i64 %110
  %112 = getelementptr inbounds nuw %struct.filter_info_t, ptr %111, i32 0, i32 2
  %113 = getelementptr inbounds [20 x i32], ptr %112, i64 0, i64 1
  %114 = load i32, ptr %113, align 4, !tbaa !12
  %115 = icmp ne i32 %107, %114
  br i1 %115, label %116, label %117

116:                                              ; preds = %105
  store i32 0, ptr %5, align 4
  store i32 1, ptr %19, align 4
  br label %232

117:                                              ; preds = %105
  br label %227

118:                                              ; preds = %66
  %119 = load ptr, ptr %9, align 8, !tbaa !9
  %120 = load i32, ptr %17, align 4, !tbaa !12
  %121 = sext i32 %120 to i64
  %122 = getelementptr inbounds %struct.filter_info_t, ptr %119, i64 %121
  %123 = getelementptr inbounds nuw %struct.filter_info_t, ptr %122, i32 0, i32 3
  %124 = load i64, ptr %123, align 8, !tbaa !56
  %125 = icmp ne i64 0, %124
  br i1 %125, label %126, label %127

126:                                              ; preds = %118
  store i32 0, ptr %5, align 4
  store i32 1, ptr %19, align 4
  br label %232

127:                                              ; preds = %118
  br label %227

128:                                              ; preds = %66
  store i32 0, ptr %18, align 4, !tbaa !12
  br label %129

129:                                              ; preds = %149, %128
  %130 = load i32, ptr %18, align 4, !tbaa !12
  %131 = icmp ult i32 %130, 2
  br i1 %131, label %132, label %152

132:                                              ; preds = %129
  %133 = load i32, ptr %18, align 4, !tbaa !12
  %134 = zext i32 %133 to i64
  %135 = getelementptr inbounds nuw [20 x i32], ptr %13, i64 0, i64 %134
  %136 = load i32, ptr %135, align 4, !tbaa !12
  %137 = load ptr, ptr %9, align 8, !tbaa !9
  %138 = load i32, ptr %17, align 4, !tbaa !12
  %139 = sext i32 %138 to i64
  %140 = getelementptr inbounds %struct.filter_info_t, ptr %137, i64 %139
  %141 = getelementptr inbounds nuw %struct.filter_info_t, ptr %140, i32 0, i32 2
  %142 = load i32, ptr %18, align 4, !tbaa !12
  %143 = zext i32 %142 to i64
  %144 = getelementptr inbounds nuw [20 x i32], ptr %141, i64 0, i64 %143
  %145 = load i32, ptr %144, align 4, !tbaa !12
  %146 = icmp ne i32 %136, %145
  br i1 %146, label %147, label %148

147:                                              ; preds = %132
  store i32 0, ptr %5, align 4
  store i32 1, ptr %19, align 4
  br label %232

148:                                              ; preds = %132
  br label %149

149:                                              ; preds = %148
  %150 = load i32, ptr %18, align 4, !tbaa !12
  %151 = add i32 %150, 1
  store i32 %151, ptr %18, align 4, !tbaa !12
  br label %129, !llvm.loop !57

152:                                              ; preds = %129
  br label %227

153:                                              ; preds = %66, %66
  %154 = load i64, ptr %14, align 8, !tbaa !10
  %155 = load ptr, ptr %9, align 8, !tbaa !9
  %156 = load i32, ptr %17, align 4, !tbaa !12
  %157 = sext i32 %156 to i64
  %158 = getelementptr inbounds %struct.filter_info_t, ptr %155, i64 %157
  %159 = getelementptr inbounds nuw %struct.filter_info_t, ptr %158, i32 0, i32 3
  %160 = load i64, ptr %159, align 8, !tbaa !56
  %161 = icmp ne i64 %154, %160
  br i1 %161, label %162, label %163

162:                                              ; preds = %153
  store i32 0, ptr %5, align 4
  store i32 1, ptr %19, align 4
  br label %232

163:                                              ; preds = %153
  store i32 0, ptr %18, align 4, !tbaa !12
  br label %164

164:                                              ; preds = %186, %163
  %165 = load i32, ptr %18, align 4, !tbaa !12
  %166 = zext i32 %165 to i64
  %167 = load i64, ptr %14, align 8, !tbaa !10
  %168 = icmp ult i64 %166, %167
  br i1 %168, label %169, label %189

169:                                              ; preds = %164
  %170 = load i32, ptr %18, align 4, !tbaa !12
  %171 = zext i32 %170 to i64
  %172 = getelementptr inbounds nuw [20 x i32], ptr %13, i64 0, i64 %171
  %173 = load i32, ptr %172, align 4, !tbaa !12
  %174 = load ptr, ptr %9, align 8, !tbaa !9
  %175 = load i32, ptr %17, align 4, !tbaa !12
  %176 = sext i32 %175 to i64
  %177 = getelementptr inbounds %struct.filter_info_t, ptr %174, i64 %176
  %178 = getelementptr inbounds nuw %struct.filter_info_t, ptr %177, i32 0, i32 2
  %179 = load i32, ptr %18, align 4, !tbaa !12
  %180 = zext i32 %179 to i64
  %181 = getelementptr inbounds nuw [20 x i32], ptr %178, i64 0, i64 %180
  %182 = load i32, ptr %181, align 4, !tbaa !12
  %183 = icmp ne i32 %173, %182
  br i1 %183, label %184, label %185

184:                                              ; preds = %169
  store i32 0, ptr %5, align 4
  store i32 1, ptr %19, align 4
  br label %232

185:                                              ; preds = %169
  br label %186

186:                                              ; preds = %185
  %187 = load i32, ptr %18, align 4, !tbaa !12
  %188 = add i32 %187, 1
  store i32 %188, ptr %18, align 4, !tbaa !12
  br label %164, !llvm.loop !58

189:                                              ; preds = %164
  br label %227

190:                                              ; preds = %66
  %191 = load i64, ptr %14, align 8, !tbaa !10
  %192 = load ptr, ptr %9, align 8, !tbaa !9
  %193 = load i32, ptr %17, align 4, !tbaa !12
  %194 = sext i32 %193 to i64
  %195 = getelementptr inbounds %struct.filter_info_t, ptr %192, i64 %194
  %196 = getelementptr inbounds nuw %struct.filter_info_t, ptr %195, i32 0, i32 3
  %197 = load i64, ptr %196, align 8, !tbaa !56
  %198 = icmp ne i64 %191, %197
  br i1 %198, label %199, label %200

199:                                              ; preds = %190
  store i32 0, ptr %5, align 4
  store i32 1, ptr %19, align 4
  br label %232

200:                                              ; preds = %190
  store i32 0, ptr %18, align 4, !tbaa !12
  br label %201

201:                                              ; preds = %223, %200
  %202 = load i32, ptr %18, align 4, !tbaa !12
  %203 = zext i32 %202 to i64
  %204 = load i64, ptr %14, align 8, !tbaa !10
  %205 = icmp ult i64 %203, %204
  br i1 %205, label %206, label %226

206:                                              ; preds = %201
  %207 = load i32, ptr %18, align 4, !tbaa !12
  %208 = zext i32 %207 to i64
  %209 = getelementptr inbounds nuw [20 x i32], ptr %13, i64 0, i64 %208
  %210 = load i32, ptr %209, align 4, !tbaa !12
  %211 = load ptr, ptr %9, align 8, !tbaa !9
  %212 = load i32, ptr %17, align 4, !tbaa !12
  %213 = sext i32 %212 to i64
  %214 = getelementptr inbounds %struct.filter_info_t, ptr %211, i64 %213
  %215 = getelementptr inbounds nuw %struct.filter_info_t, ptr %214, i32 0, i32 2
  %216 = load i32, ptr %18, align 4, !tbaa !12
  %217 = zext i32 %216 to i64
  %218 = getelementptr inbounds nuw [20 x i32], ptr %215, i64 0, i64 %217
  %219 = load i32, ptr %218, align 4, !tbaa !12
  %220 = icmp ne i32 %210, %219
  br i1 %220, label %221, label %222

221:                                              ; preds = %206
  store i32 0, ptr %5, align 4
  store i32 1, ptr %19, align 4
  br label %232

222:                                              ; preds = %206
  br label %223

223:                                              ; preds = %222
  %224 = load i32, ptr %18, align 4, !tbaa !12
  %225 = add i32 %224, 1
  store i32 %225, ptr %18, align 4, !tbaa !12
  br label %201, !llvm.loop !59

226:                                              ; preds = %201
  br label %227

227:                                              ; preds = %226, %189, %152, %127, %117, %92, %66
  br label %228

228:                                              ; preds = %227
  %229 = load i32, ptr %17, align 4, !tbaa !12
  %230 = add nsw i32 %229, 1
  store i32 %230, ptr %17, align 4, !tbaa !12
  br label %43, !llvm.loop !60

231:                                              ; preds = %43
  store i32 1, ptr %5, align 4
  store i32 1, ptr %19, align 4
  br label %232

232:                                              ; preds = %231, %221, %199, %184, %162, %147, %126, %116, %104, %91, %84, %79, %65, %55, %41, %36, %23
  call void @llvm.lifetime.end.p0(i64 4, ptr %18) #5
  call void @llvm.lifetime.end.p0(i64 4, ptr %17) #5
  call void @llvm.lifetime.end.p0(i64 8, ptr %16) #5
  call void @llvm.lifetime.end.p0(i64 256, ptr %15) #5
  call void @llvm.lifetime.end.p0(i64 8, ptr %14) #5
  call void @llvm.lifetime.end.p0(i64 80, ptr %13) #5
  call void @llvm.lifetime.end.p0(i64 4, ptr %12) #5
  call void @llvm.lifetime.end.p0(i64 4, ptr %11) #5
  call void @llvm.lifetime.end.p0(i64 4, ptr %10) #5
  %233 = load i32, ptr %5, align 4
  ret i32 %233
}