; Function Attrs: nounwind uwtable
define internal fastcc range(i32 -1, 2) i32 @verify_filters(i64 noundef range(i64 0, -9223372036854775808) %0, i64 noundef range(i64 0, -9223372036854775808) %1, i32 noundef %2, ptr noundef readonly captures(none) %3) unnamed_addr #0 {
  %5 = alloca i32, align 4
  %6 = alloca [20 x i32], align 16
  %7 = alloca i64, align 8
  %8 = alloca [256 x i8], align 16
  call void @llvm.lifetime.start.p0(i64 4, ptr nonnull %5) #6
  call void @llvm.lifetime.start.p0(i64 80, ptr nonnull %6) #6
  call void @llvm.lifetime.start.p0(i64 8, ptr nonnull %7) #6
  call void @llvm.lifetime.start.p0(i64 256, ptr nonnull %8) #6
  %9 = tail call i32 @H5Pget_nfilters(i64 noundef %0) #6
  %10 = icmp slt i32 %9, 0
  %indvars.iv.sroa.gep133 = getelementptr inbounds nuw i8, ptr %6, i64 4
  br i1 %10, label %.loopexit69, label %11

11:                                               ; preds = %4
  %12 = icmp eq i32 %9, 0
  %13 = icmp eq i32 %2, 1
  %or.cond = and i1 %13, %12
  br i1 %or.cond, label %14, label %17

14:                                               ; preds = %11
  %15 = load i32, ptr %3, align 8, !tbaa !55
  %16 = icmp eq i32 %15, 0
  %spec.select = zext i1 %16 to i32
  br label %.loopexit69

17:                                               ; preds = %11
  %.not = icmp eq i32 %9, %2
  br i1 %.not, label %.preheader76, label %.loopexit69

.preheader76:                                     ; preds = %17
  %.not104 = icmp eq i32 %2, 0
  br i1 %.not104, label %.loopexit69, label %.lr.ph83

.lr.ph83:                                         ; preds = %.preheader76
  %18 = getelementptr inbounds nuw i8, ptr %6, i64 4
  %wide.trip.count = zext nneg i32 %2 to i64
  br label %19

19:                                               ; preds = %.lr.ph83, %.loopexit
  %indvars.iv113 = phi i64 [ 0, %.lr.ph83 ], [ %indvars.iv.next114, %.loopexit ]
  store i64 20, ptr %7, align 8, !tbaa !21
  %20 = trunc nuw nsw i64 %indvars.iv113 to i32
  %21 = call i32 @H5Pget_filter2(i64 noundef %0, i32 noundef %20, ptr noundef nonnull %5, ptr noundef nonnull %7, ptr noundef nonnull %6, i64 noundef 256, ptr noundef nonnull %8, ptr noundef null) #6
  %22 = icmp slt i32 %21, 0
  br i1 %22, label %.loopexit69, label %23

23:                                               ; preds = %19
  %24 = getelementptr inbounds nuw %struct.filter_info_t, ptr %3, i64 %indvars.iv113
  %25 = load i32, ptr %24, align 8, !tbaa !55
  %.not56 = icmp eq i32 %21, %25
  br i1 %.not56, label %26, label %.loopexit69

26:                                               ; preds = %23
  switch i32 %21, label %72 [
    i32 0, label %.loopexit
    i32 2, label %28
    i32 4, label %39
    i32 5, label %48
    i32 6, label %.preheader70
    i32 3, label %57
    i32 1, label %57
  ]

.preheader70:                                     ; preds = %26
  %27 = getelementptr inbounds nuw i8, ptr %24, i64 8
  br label %52

28:                                               ; preds = %26
  %29 = load i64, ptr %7, align 8, !tbaa !21
  %.not64 = icmp eq i64 %29, 1
  br i1 %.not64, label %33, label %30

30:                                               ; preds = %28
  %31 = getelementptr inbounds nuw i8, ptr %24, i64 88
  %32 = load i64, ptr %31, align 8, !tbaa !57
  %.not65 = icmp eq i64 %32, 0
  br i1 %.not65, label %33, label %.loopexit69

33:                                               ; preds = %30, %28
  %34 = call i64 @H5Tget_size(i64 noundef %1) #6
  %35 = icmp eq i64 %34, 0
  br i1 %35, label %.loopexit69, label %36

36:                                               ; preds = %33
  %37 = load i32, ptr %6, align 16, !tbaa !20
  %38 = zext i32 %37 to i64
  %.not66 = icmp eq i64 %34, %38
  br i1 %.not66, label %.loopexit, label %.loopexit69

39:                                               ; preds = %26
  %40 = load i64, ptr %7, align 8, !tbaa !21
  %.not61 = icmp eq i64 %40, 4
  br i1 %.not61, label %44, label %41

41:                                               ; preds = %39
  %42 = getelementptr inbounds nuw i8, ptr %24, i64 88
  %43 = load i64, ptr %42, align 8, !tbaa !57
  %.not62 = icmp eq i64 %43, 2
  br i1 %.not62, label %44, label %.loopexit69

44:                                               ; preds = %41, %39
  %45 = load i32, ptr %18, align 4, !tbaa !20
  %46 = getelementptr inbounds nuw i8, ptr %24, i64 12
  %47 = load i32, ptr %46, align 4, !tbaa !20
  %.not63 = icmp eq i32 %45, %47
  br i1 %.not63, label %.loopexit, label %.loopexit69

48:                                               ; preds = %26
  %49 = getelementptr inbounds nuw i8, ptr %24, i64 88
  %50 = load i64, ptr %49, align 8, !tbaa !57
  %.not60 = icmp eq i64 %50, 0
  br i1 %.not60, label %.loopexit, label %.loopexit69

51:                                               ; preds = %52
  br i1 %53, label %52, label %.loopexit, !llvm.loop !58

52:                                               ; preds = %.preheader70, %51
  %53 = phi i1 [ true, %.preheader70 ], [ false, %51 ]
  %indvars.iv.sroa.phi = phi ptr [ %6, %.preheader70 ], [ %indvars.iv.sroa.gep133, %51 ]
  %indvars.iv = phi i64 [ 0, %.preheader70 ], [ 1, %51 ]
  %54 = load i32, ptr %indvars.iv.sroa.phi, align 4, !tbaa !20
  %55 = getelementptr inbounds nuw [20 x i32], ptr %27, i64 0, i64 %indvars.iv
  %56 = load i32, ptr %55, align 4, !tbaa !20
  %.not59 = icmp eq i32 %54, %56
  br i1 %.not59, label %51, label %.loopexit69

57:                                               ; preds = %26, %26
  %58 = load i64, ptr %7, align 8, !tbaa !21
  %59 = getelementptr inbounds nuw i8, ptr %24, i64 88
  %60 = load i64, ptr %59, align 8, !tbaa !57
  %.not57 = icmp eq i64 %58, %60
  br i1 %.not57, label %.preheader73, label %.loopexit69

.preheader73:                                     ; preds = %57
  %.not105 = icmp eq i64 %58, 0
  br i1 %.not105, label %.loopexit, label %.lr.ph

.lr.ph:                                           ; preds = %.preheader73
  %61 = getelementptr inbounds nuw i8, ptr %24, i64 8
  br label %66

62:                                               ; preds = %66
  %63 = add i32 %.178, 1
  %64 = zext i32 %63 to i64
  %65 = icmp ugt i64 %58, %64
  br i1 %65, label %66, label %.loopexit, !llvm.loop !59

66:                                               ; preds = %.lr.ph, %62
  %67 = phi i64 [ 0, %.lr.ph ], [ %64, %62 ]
  %.178 = phi i32 [ 0, %.lr.ph ], [ %63, %62 ]
  %68 = getelementptr inbounds nuw [20 x i32], ptr %6, i64 0, i64 %67
  %69 = load i32, ptr %68, align 4, !tbaa !20
  %70 = getelementptr inbounds nuw [20 x i32], ptr %61, i64 0, i64 %67
  %71 = load i32, ptr %70, align 4, !tbaa !20
  %.not58 = icmp eq i32 %69, %71
  br i1 %.not58, label %62, label %.loopexit69

72:                                               ; preds = %26
  %73 = load i64, ptr %7, align 8, !tbaa !21
  %74 = getelementptr inbounds nuw i8, ptr %24, i64 88
  %75 = load i64, ptr %74, align 8, !tbaa !57
  %.not67 = icmp eq i64 %73, %75
  br i1 %.not67, label %.preheader, label %.loopexit69

.preheader:                                       ; preds = %72
  %.not106 = icmp eq i64 %73, 0
  br i1 %.not106, label %.loopexit, label %.lr.ph81

.lr.ph81:                                         ; preds = %.preheader
  %76 = getelementptr inbounds nuw i8, ptr %24, i64 8
  br label %81

77:                                               ; preds = %81
  %78 = add i32 %.280, 1
  %79 = zext i32 %78 to i64
  %80 = icmp ugt i64 %73, %79
  br i1 %80, label %81, label %.loopexit, !llvm.loop !60

81:                                               ; preds = %.lr.ph81, %77
  %82 = phi i64 [ 0, %.lr.ph81 ], [ %79, %77 ]
  %.280 = phi i32 [ 0, %.lr.ph81 ], [ %78, %77 ]
  %83 = getelementptr inbounds nuw [20 x i32], ptr %6, i64 0, i64 %82
  %84 = load i32, ptr %83, align 4, !tbaa !20
  %85 = getelementptr inbounds nuw [20 x i32], ptr %76, i64 0, i64 %82
  %86 = load i32, ptr %85, align 4, !tbaa !20
  %.not68 = icmp eq i32 %84, %86
  br i1 %.not68, label %77, label %.loopexit69

.loopexit:                                        ; preds = %62, %51, %77, %.preheader73, %.preheader, %26, %36, %44, %48
  %indvars.iv.next114 = add nuw nsw i64 %indvars.iv113, 1
  %exitcond.not = icmp eq i64 %indvars.iv.next114, %wide.trip.count
  br i1 %exitcond.not, label %.loopexit69, label %19, !llvm.loop !61

.loopexit69:                                      ; preds = %19, %23, %30, %33, %36, %41, %44, %48, %57, %72, %.loopexit, %66, %52, %81, %14, %.preheader76, %17, %4
  %.050 = phi i32 [ -1, %4 ], [ 0, %17 ], [ 1, %.preheader76 ], [ %spec.select, %14 ], [ 0, %81 ], [ 0, %52 ], [ 0, %66 ], [ -1, %19 ], [ 0, %23 ], [ 0, %30 ], [ -1, %33 ], [ 0, %36 ], [ 0, %41 ], [ 0, %44 ], [ 0, %48 ], [ 0, %57 ], [ 0, %72 ], [ 1, %.loopexit ]
  call void @llvm.lifetime.end.p0(i64 256, ptr nonnull %8) #6
  call void @llvm.lifetime.end.p0(i64 8, ptr nonnull %7) #6
  call void @llvm.lifetime.end.p0(i64 80, ptr nonnull %6) #6
  call void @llvm.lifetime.end.p0(i64 4, ptr nonnull %5) #6
  ret i32 %.050
}